target datalayout = "e-m:e-p270:32:32-p271:32:32-p272:64:64-i64:64-i128:128-f80:128-n8:16:32:64-S128"
target triple = "x86_64-pc-linux-gnu"

%struct._lv_obj_class_t = type { ptr, ptr, ptr, ptr, ptr, ptr, i32, i32, i32 }
%struct._lv_tabview_t = type { %struct._lv_obj_t, i32, i32 }
%struct._lv_obj_t = type { ptr, ptr, ptr, ptr, ptr, %struct.lv_area_t, i32, i16, i16 }
%struct.lv_area_t = type { i32, i32, i32, i32 }
%union.lv_style_value_t = type { ptr }

@lv_button_class = external constant %struct._lv_obj_class_t, align 8

; Function Attrs: inlinehint nounwind uwtable
define internal i32 @lv_obj_get_style_pad_row(ptr noundef %0, i32 noundef %1) #3 {
  %3 = alloca ptr, align 8
  %4 = alloca i32, align 4
  %5 = alloca %union.lv_style_value_t, align 8
  store ptr %0, ptr %3, align 8, !tbaa !3
  store i32 %1, ptr %4, align 4, !tbaa !13
  call void @llvm.lifetime.start.p0(i64 8, ptr %5) #4
  %6 = load ptr, ptr %3, align 8, !tbaa !3
  %7 = load i32, ptr %4, align 4, !tbaa !13
  %8 = call ptr @lv_obj_get_style_prop(ptr noundef %6, i32 noundef %7, i8 noundef zeroext 20)
  %9 = getelementptr inbounds nuw %union.lv_style_value_t, ptr %5, i32 0, i32 0
  store ptr %8, ptr %9, align 8
  %10 = load i32, ptr %5, align 8, !tbaa !17
  call void @llvm.lifetime.end.p0(i64 8, ptr %5) #4
  ret i32 %10
}

; Function Attrs: inlinehint nounwind uwtable
define internal i32 @lv_obj_get_style_base_dir(ptr noundef %0, i32 noundef %1) #3 {
  %3 = alloca ptr, align 8
  %4 = alloca i32, align 4
  %5 = alloca %union.lv_style_value_t, align 8
  store ptr %0, ptr %3, align 8, !tbaa !3
  store i32 %1, ptr %4, align 4, !tbaa !13
  call void @llvm.lifetime.start.p0(i64 8, ptr %5) #4
  %6 = load ptr, ptr %3, align 8, !tbaa !3
  %7 = load i32, ptr %4, align 4, !tbaa !13
  %8 = call ptr @lv_obj_get_style_prop(ptr noundef %6, i32 noundef %7, i8 noundef zeroext 39)
  %9 = getelementptr inbounds nuw %union.lv_style_value_t, ptr %5, i32 0, i32 0
  store ptr %8, ptr %9, align 8
  %10 = load i32, ptr %5, align 8, !tbaa !17
  call void @llvm.lifetime.end.p0(i64 8, ptr %5) #4
  ret i32 %10
}

; Function Attrs: inlinehint nounwind uwtable
define internal i32 @lv_obj_get_style_pad_column(ptr noundef %0, i32 noundef %1) #3 {
  %3 = alloca ptr, align 8
  %4 = alloca i32, align 4
  %5 = alloca %union.lv_style_value_t, align 8
  store ptr %0, ptr %3, align 8, !tbaa !3
  store i32 %1, ptr %4, align 4, !tbaa !13
  call void @llvm.lifetime.start.p0(i64 8, ptr %5) #4
  %6 = load ptr, ptr %3, align 8, !tbaa !3
  %7 = load i32, ptr %4, align 4, !tbaa !13
  %8 = call ptr @lv_obj_get_style_prop(ptr noundef %6, i32 noundef %7, i8 noundef zeroext 21)
  %9 = getelementptr inbounds nuw %union.lv_style_value_t, ptr %5, i32 0, i32 0
  store ptr %8, ptr %9, align 8
  %10 = load i32, ptr %5, align 8, !tbaa !17
  call void @llvm.lifetime.end.p0(i64 8, ptr %5) #4
  ret i32 %10
}

; Function Attrs: nounwind uwtable
define i32 @lv_tabview_get_tab_count(ptr noundef %0) #0 {
  %2 = alloca ptr, align 8
  %3 = alloca ptr, align 8
  store ptr %0, ptr %2, align 8, !tbaa !3
  br label %4

4:                                                ; preds = %1
  br label %5

5:                                                ; preds = %4
  call void @llvm.lifetime.start.p0(i64 8, ptr %3) #4
  %6 = load ptr, ptr %2, align 8, !tbaa !3
  %7 = call ptr @lv_tabview_get_tab_bar(ptr noundef %6)
  store ptr %7, ptr %3, align 8, !tbaa !3
  %8 = load ptr, ptr %3, align 8, !tbaa !3
  %9 = call i32 @lv_obj_get_child_count_by_type(ptr noundef %8, ptr noundef @lv_button_class)
  call void @llvm.lifetime.end.p0(i64 8, ptr %3) #4
  ret i32 %9
}

; Function Attrs: nounwind uwtable
define ptr @lv_tabview_get_tab_bar(ptr noundef %0) #0 {
  %2 = alloca ptr, align 8
  store ptr %0, ptr %2, align 8, !tbaa !3
  %3 = load ptr, ptr %2, align 8, !tbaa !3
  %4 = call ptr @lv_obj_get_child(ptr noundef %3, i32 noundef 0)
  ret ptr %4
}

; Function Attrs: nounwind uwtable
define ptr @lv_tabview_get_content(ptr noundef %0) #0 {
  %2 = alloca ptr, align 8
  store ptr %0, ptr %2, align 8, !tbaa !3
  %3 = load ptr, ptr %2, align 8, !tbaa !3
  %4 = call ptr @lv_obj_get_child(ptr noundef %3, i32 noundef 1)
  ret ptr %4
}

; Function Attrs: nounwind uwtable
define void @lv_tabview_set_active(ptr noundef %0, i32 noundef %1, i32 noundef %2) #0 {
  %4 = alloca ptr, align 8
  %5 = alloca i32, align 4
  %6 = alloca i32, align 4
  %7 = alloca ptr, align 8
  %8 = alloca ptr, align 8
  %9 = alloca ptr, align 8
  %10 = alloca i32, align 4
  %11 = alloca i32, align 4
  %12 = alloca i32, align 4
  %13 = alloca i32, align 4
  %14 = alloca i32, align 4
  %15 = alloca i32, align 4
  %16 = alloca i32, align 4
  %17 = alloca i32, align 4
  %18 = alloca ptr, align 8
  store ptr %0, ptr %4, align 8, !tbaa !3
  store i32 %1, ptr %5, align 4, !tbaa !13
  store i32 %2, ptr %6, align 4, !tbaa !13
  br label %19

19:                                               ; preds = %3
  br label %20

20:                                               ; preds = %19
  call void @llvm.lifetime.start.p0(i64 8, ptr %7) #4
  %21 = load ptr, ptr %4, align 8, !tbaa !3
  store ptr %21, ptr %7, align 8, !tbaa !3
  call void @llvm.lifetime.start.p0(i64 8, ptr %8) #4
  %22 = load ptr, ptr %4, align 8, !tbaa !3
  %23 = call ptr @lv_tabview_get_content(ptr noundef %22)
  store ptr %23, ptr %8, align 8, !tbaa !3
  call void @llvm.lifetime.start.p0(i64 8, ptr %9) #4
  %24 = load ptr, ptr %4, align 8, !tbaa !3
  %25 = call ptr @lv_tabview_get_tab_bar(ptr noundef %24)
  store ptr %25, ptr %9, align 8, !tbaa !3
  call void @llvm.lifetime.start.p0(i64 4, ptr %10) #4
  %26 = load ptr, ptr %4, align 8, !tbaa !3
  %27 = call i32 @lv_tabview_get_tab_count(ptr noundef %26)
  store i32 %27, ptr %10, align 4, !tbaa !13
  %28 = load i32, ptr %5, align 4, !tbaa !13
  %29 = load i32, ptr %10, align 4, !tbaa !13
  %30 = icmp uge i32 %28, %29
  br i1 %30, label %31, label %34

31:                                               ; preds = %20
  %32 = load i32, ptr %10, align 4, !tbaa !13
  %33 = sub i32 %32, 1
  store i32 %33, ptr %5, align 4, !tbaa !13
  br label %34

34:                                               ; preds = %31, %20
  %35 = load ptr, ptr %4, align 8, !tbaa !3
  call void @lv_obj_update_layout(ptr noundef %35)
  %36 = load ptr, ptr %8, align 8, !tbaa !3
  %37 = icmp eq ptr %36, null
  br i1 %37, label %38, label %39

38:                                               ; preds = %34
  store i32 1, ptr %11, align 4
  br label %105

39:                                               ; preds = %34
  %40 = load ptr, ptr %7, align 8, !tbaa !3
  %41 = getelementptr inbounds nuw %struct._lv_tabview_t, ptr %40, i32 0, i32 2
  %42 = load i32, ptr %41, align 4, !tbaa !7
  %43 = and i32 %42, 12
  %44 = icmp ne i32 %43, 0
  br i1 %44, label %45, label %72

45:                                               ; preds = %39
  call void @llvm.lifetime.start.p0(i64 4, ptr %12) #4
  %46 = load ptr, ptr %8, align 8, !tbaa !3
  %47 = call i32 @lv_obj_get_style_pad_column(ptr noundef %46, i32 noundef 0)
  store i32 %47, ptr %12, align 4, !tbaa !13
  call void @llvm.lifetime.start.p0(i64 4, ptr %13) #4
  %48 = load ptr, ptr %8, align 8, !tbaa !3
  %49 = call i32 @lv_obj_get_content_width(ptr noundef %48)
  store i32 %49, ptr %13, align 4, !tbaa !13
  %50 = load ptr, ptr %4, align 8, !tbaa !3
  %51 = call i32 @lv_obj_get_style_base_dir(ptr noundef %50, i32 noundef 0)
  %52 = icmp ne i32 %51, 1
  br i1 %52, label %53, label %61

53:                                               ; preds = %45
  %54 = load ptr, ptr %8, align 8, !tbaa !3
  %55 = load i32, ptr %5, align 4, !tbaa !13
  %56 = load i32, ptr %12, align 4, !tbaa !13
  %57 = load i32, ptr %13, align 4, !tbaa !13
  %58 = add nsw i32 %56, %57
  %59 = mul i32 %55, %58
  %60 = load i32, ptr %6, align 4, !tbaa !13
  call void @lv_obj_scroll_to_x(ptr noundef %54, i32 noundef %59, i32 noundef %60)
  br label %71

61:                                               ; preds = %45
  call void @llvm.lifetime.start.p0(i64 4, ptr %14) #4
  %62 = load i32, ptr %5, align 4, !tbaa !13
  %63 = sub nsw i32 0, %62
  store i32 %63, ptr %14, align 4, !tbaa !13
  %64 = load ptr, ptr %8, align 8, !tbaa !3
  %65 = load i32, ptr %12, align 4, !tbaa !13
  %66 = load i32, ptr %13, align 4, !tbaa !13
  %67 = add nsw i32 %65, %66
  %68 = load i32, ptr %14, align 4, !tbaa !13
  %69 = mul nsw i32 %67, %68
  %70 = load i32, ptr %6, align 4, !tbaa !13
  call void @lv_obj_scroll_to_x(ptr noundef %64, i32 noundef %69, i32 noundef %70)
  call void @llvm.lifetime.end.p0(i64 4, ptr %14) #4
  br label %71

71:                                               ; preds = %61, %53
  call void @llvm.lifetime.end.p0(i64 4, ptr %13) #4
  call void @llvm.lifetime.end.p0(i64 4, ptr %12) #4
  br label %84

72:                                               ; preds = %39
  call void @llvm.lifetime.start.p0(i64 4, ptr %15) #4
  %73 = load ptr, ptr %8, align 8, !tbaa !3
  %74 = call i32 @lv_obj_get_style_pad_row(ptr noundef %73, i32 noundef 0)
  store i32 %74, ptr %15, align 4, !tbaa !13
  call void @llvm.lifetime.start.p0(i64 4, ptr %16) #4
  %75 = load ptr, ptr %8, align 8, !tbaa !3
  %76 = call i32 @lv_obj_get_content_height(ptr noundef %75)
  store i32 %76, ptr %16, align 4, !tbaa !13
  %77 = load ptr, ptr %8, align 8, !tbaa !3
  %78 = load i32, ptr %5, align 4, !tbaa !13
  %79 = load i32, ptr %15, align 4, !tbaa !13
  %80 = load i32, ptr %16, align 4, !tbaa !13
  %81 = add nsw i32 %79, %80
  %82 = mul i32 %78, %81
  %83 = load i32, ptr %6, align 4, !tbaa !13
  call void @lv_obj_scroll_to_y(ptr noundef %77, i32 noundef %82, i32 noundef %83)
  call void @llvm.lifetime.end.p0(i64 4, ptr %16) #4
  call void @llvm.lifetime.end.p0(i64 4, ptr %15) #4
  br label %84

84:                                               ; preds = %72, %71
  call void @llvm.lifetime.start.p0(i64 4, ptr %17) #4
  store i32 0, ptr %17, align 4, !tbaa !13
  call void @llvm.lifetime.start.p0(i64 8, ptr %18) #4
  %85 = load ptr, ptr %9, align 8, !tbaa !3
  %86 = load i32, ptr %17, align 4, !tbaa !13
  %87 = call ptr @lv_obj_get_child_by_type(ptr noundef %85, i32 noundef %86, ptr noundef @lv_button_class)
  store ptr %87, ptr %18, align 8, !tbaa !3
  br label %88

88:                                               ; preds = %91, %84
  %89 = load ptr, ptr %18, align 8, !tbaa !3
  %90 = icmp ne ptr %89, null
  br i1 %90, label %91, label %101

91:                                               ; preds = %88
  %92 = load ptr, ptr %18, align 8, !tbaa !3
  %93 = load i32, ptr %17, align 4, !tbaa !13
  %94 = load i32, ptr %5, align 4, !tbaa !13
  %95 = icmp eq i32 %93, %94
  call void @lv_obj_set_state(ptr noundef %92, i16 noundef zeroext 1, i1 noundef zeroext %95)
  %96 = load i32, ptr %17, align 4, !tbaa !13
  %97 = add i32 %96, 1
  store i32 %97, ptr %17, align 4, !tbaa !13
  %98 = load ptr, ptr %9, align 8, !tbaa !3
  %99 = load i32, ptr %17, align 4, !tbaa !13
  %100 = call ptr @lv_obj_get_child_by_type(ptr noundef %98, i32 noundef %99, ptr noundef @lv_button_class)
  store ptr %100, ptr %18, align 8, !tbaa !3
  br label %88, !llvm.loop !14

101:                                              ; preds = %88
  %102 = load i32, ptr %5, align 4, !tbaa !13
  %103 = load ptr, ptr %7, align 8, !tbaa !3
  %104 = getelementptr inbounds nuw %struct._lv_tabview_t, ptr %103, i32 0, i32 1
  store i32 %102, ptr %104, align 8, !tbaa !16
  call void @llvm.lifetime.end.p0(i64 8, ptr %18) #4
  call void @llvm.lifetime.end.p0(i64 4, ptr %17) #4
  store i32 0, ptr %11, align 4
  br label %105

105:                                              ; preds = %101, %38
  call void @llvm.lifetime.end.p0(i64 4, ptr %10) #4
  call void @llvm.lifetime.end.p0(i64 8, ptr %9) #4
  call void @llvm.lifetime.end.p0(i64 8, ptr %8) #4
  call void @llvm.lifetime.end.p0(i64 8, ptr %7) #4
  %106 = load i32, ptr %11, align 4
  switch i32 %106, label %108 [
    i32 0, label %107
    i32 1, label %107
  ]

107:                                              ; preds = %105, %105
  ret void

108:                                              ; preds = %105
  unreachable
}