; Function Attrs: nounwind uwtable
define void @lv_tabview_set_active(ptr noundef %0, i32 noundef %1, i32 noundef %2) local_unnamed_addr #0 {
  %4 = tail call ptr @lv_obj_get_child(ptr noundef %0, i32 noundef 1) #5
  %5 = tail call ptr @lv_obj_get_child(ptr noundef %0, i32 noundef 0) #5
  %6 = tail call ptr @lv_obj_get_child(ptr noundef %0, i32 noundef 0) #5
  %7 = tail call i32 @lv_obj_get_child_count_by_type(ptr noundef %6, ptr noundef nonnull @lv_button_class) #5
  %.not = icmp ult i32 %1, %7
  %8 = add i32 %7, -1
  %spec.select = select i1 %.not, i32 %1, i32 %8
  tail call void @lv_obj_update_layout(ptr noundef %0) #5
  %9 = icmp eq ptr %4, null
  br i1 %9, label %38, label %10

10:                                               ; preds = %3
  %11 = getelementptr inbounds nuw i8, ptr %0, i64 68
  %12 = load i32, ptr %11, align 4, !tbaa !3
  %13 = and i32 %12, 12
  %.not46 = icmp eq i32 %13, 0
  br i1 %.not46, label %26, label %14

14:                                               ; preds = %10
  %15 = tail call ptr @lv_obj_get_style_prop(ptr noundef nonnull %4, i32 noundef 0, i8 noundef zeroext 21) #5
  %16 = ptrtoint ptr %15 to i64
  %.sroa.0.0.extract.trunc.i = trunc i64 %16 to i32
  %17 = tail call i32 @lv_obj_get_content_width(ptr noundef nonnull %4) #5
  %18 = tail call ptr @lv_obj_get_style_prop(ptr noundef nonnull %0, i32 noundef 0, i8 noundef zeroext 39) #5
  %19 = ptrtoint ptr %18 to i64
  %20 = and i64 %19, 4294967295
  %.not47 = icmp eq i64 %20, 1
  %21 = add nsw i32 %17, %.sroa.0.0.extract.trunc.i
  %22 = mul i32 %spec.select, %21
  br i1 %.not47, label %24, label %23

23:                                               ; preds = %14
  tail call void @lv_obj_scroll_to_x(ptr noundef nonnull %4, i32 noundef %22, i32 noundef %2) #5
  br label %32

24:                                               ; preds = %14
  %25 = sub i32 0, %22
  tail call void @lv_obj_scroll_to_x(ptr noundef nonnull %4, i32 noundef %25, i32 noundef %2) #5
  br label %32

26:                                               ; preds = %10
  %27 = tail call ptr @lv_obj_get_style_prop(ptr noundef nonnull %4, i32 noundef 0, i8 noundef zeroext 20) #5
  %28 = ptrtoint ptr %27 to i64
  %.sroa.0.0.extract.trunc.i50 = trunc i64 %28 to i32
  %29 = tail call i32 @lv_obj_get_content_height(ptr noundef nonnull %4) #5
  %30 = add nsw i32 %29, %.sroa.0.0.extract.trunc.i50
  %31 = mul i32 %30, %spec.select
  tail call void @lv_obj_scroll_to_y(ptr noundef nonnull %4, i32 noundef %31, i32 noundef %2) #5
  br label %32

32:                                               ; preds = %23, %24, %26
  %33 = tail call ptr @lv_obj_get_child_by_type(ptr noundef %5, i32 noundef 0, ptr noundef nonnull @lv_button_class) #5
  %.not4851 = icmp eq ptr %33, null
  br i1 %.not4851, label %._crit_edge, label %.lr.ph

.lr.ph:                                           ; preds = %32, %.lr.ph
  %.053 = phi ptr [ %36, %.lr.ph ], [ %33, %32 ]
  %.04152 = phi i32 [ %35, %.lr.ph ], [ 0, %32 ]
  %34 = icmp eq i32 %.04152, %spec.select
  tail call void @lv_obj_set_state(ptr noundef nonnull %.053, i16 noundef zeroext 1, i1 noundef zeroext %34) #5
  %35 = add i32 %.04152, 1
  %36 = tail call ptr @lv_obj_get_child_by_type(ptr noundef %5, i32 noundef %35, ptr noundef nonnull @lv_button_class) #5
  %.not48 = icmp eq ptr %36, null
  br i1 %.not48, label %._crit_edge, label %.lr.ph, !llvm.loop !13

._crit_edge:                                      ; preds = %.lr.ph, %32
  %37 = getelementptr inbounds nuw i8, ptr %0, i64 64
  store i32 %spec.select, ptr %37, align 8, !tbaa !12
  br label %38

38:                                               ; preds = %3, %._crit_edge
  ret void
}